A51 MACRO ASSEMBLER  STARTUP                                                              09/23/2022 11:52:48 PAGE     1


MACRO ASSEMBLER A51 V8.2.7.0
OBJECT MODULE PLACED IN .\output\STARTUP.obj
ASSEMBLER INVOKED BY: C:\Keil_v5\C51\BIN\A51.EXE STARTUP.A51 SET(LARGE) DEBUG PRINT(.\Listings\STARTUP.lst) OBJECT(.\out
                      put\STARTUP.obj) EP

LOC  OBJ            LINE     SOURCE

                       1     $nomod51 
                       2     ;****************************************************************************
                       3     ;Following EQU statement is User-defined option.
                       4     ;If Enable_USB_ISP EQU 1 
                       5     ;       C51 compiler will merge SH68F88_USB_ISP_into HEX FILE after compile.
                       6     ;       (ISP_SH68F88_20140729.INC is used)
                       7     ;If Enable_USB_ISP EQU 0
                       8     ;       C51 compiler will not merge SH68F88_USB_ISP_into HEX FILE.
                       9     ;
                      10     ;Modified Date : 2015.07.22
                      11     ;****************************************************************************
  0001                12     Enable_USB_ISP EQU              1 
                      13     
                      14     ;------------------------------------------------------------------------------
                      15     ;  This file is part of the C51 Compiler package
                      16     ;  Copyright (c) 1988-2002 Keil Elektronik GmbH and Keil Software, Inc.
                      17     ;------------------------------------------------------------------------------
                      18     ;  STARTUP.A51:  This code is executed after processor reset.
                      19     ;
                      20     ;  To translate this file use A51 with the following invocation:
                      21     ;
                      22     ;     A51 STARTUP.A51
                      23     ;
                      24     ;  To link the modified STARTUP.OBJ file to your application use the following             
                                                                                                                        
                                                                                                               `
                      25     ;  BL51 invocation:
                      26     ;
                      27     ;     BL51 <your object file list>, STARTUP.OBJ <controls>
                      28     ;
                      29     ;------------------------------------------------------------------------------
                      30     ;
                      31     ;  User-defined Power-On Initialization of Memory
                      32     ;
                      33     ;  With the following EQU statements the initialization of memory
                      34     ;  at processor reset can be defined:
                      35     ;
                      36     ;               ; the absolute start-address of IDATA memory is always 0
  0100                37     IDATALEN        EQU     256     ; the length of IDATA memory in bytes.
                      38     ;
  0000                39     XDATASTART      EQU     0H      ; the absolute start-address of XDATA memory
  1000                40     XDATALEN        EQU     4096    ; the length of XDATA memory in bytes.
                      41     ;
  0000                42     PDATASTART      EQU     0H      ; the absolute start-address of PDATA memory
  0000                43     PDATALEN        EQU     0H      ; the length of PDATA memory in bytes.
                      44     ;
                      45     ;  Notes:  The IDATA space overlaps physically the DATA and BIT areas of the
                      46     ;          8051 CPU. At minimum the memory space occupied from the C51 
                      47     ;          run-time routines must be set to zero.
                      48     ;------------------------------------------------------------------------------
                      49     ;
                      50     ;  Reentrant Stack Initilization
                      51     ;
                      52     ;  The following EQU statements define the stack pointer for reentrant
                      53     ;  functions and initialized it:
                      54     ;
                      55     ;  Stack Space for reentrant functions in the SMALL model.
A51 MACRO ASSEMBLER  STARTUP                                                              09/23/2022 11:52:48 PAGE     2

  0000                56     IBPSTACK        EQU     0       ; set to 1 if small reentrant is used.
  0100                57     IBPSTACKTOP     EQU     0FFH+1  ; set top of stack to highest location+1.
                      58     ;
                      59     ;  Stack Space for reentrant functions in the LARGE model.      
  0000                60     XBPSTACK        EQU     0       ; set to 1 if large reentrant is used.
  0000                61     XBPSTACKTOP     EQU     0FFFFH+1; set top of stack to highest location+1.
                      62     ;
                      63     ;  Stack Space for reentrant functions in the COMPACT model.    
  0000                64     PBPSTACK        EQU     0       ; set to 1 if compact reentrant is used.
  0000                65     PBPSTACKTOP     EQU     0FFFFH+1; set top of stack to highest location+1.
                      66     ;
                      67     ;------------------------------------------------------------------------------
                      68     ;
                      69     ;  Page Definition for Using the Compact Model with 64 KByte xdata RAM
                      70     ;
                      71     ;  The following EQU statements define the xdata page used for pdata
                      72     ;  variables. The EQU PPAGE must conform with the PPAGE control used
                      73     ;  in the linker invocation.
                      74     ;
  0000                75     PPAGEENABLE     EQU     0       ; set to 1 if pdata object are used.
                      76     ;
  0000                77     PPAGE           EQU     0       ; define PPAGE number.
                      78     ;
  00A0                79     PPAGE_SFR       DATA    0A0H    ; SFR that supplies uppermost address byte
                      80     ;               (most 8051 variants use P2 as uppermost address byte)
                      81     ;
                      82     ;------------------------------------------------------------------------------
                      83     
                      84     
                      85                     NAME    ?C_STARTUP
                      86     
                      87     
                      88     ?C_C51STARTUP   SEGMENT   CODE
                      89     ?STACK          SEGMENT   IDATA
                      90     
----                  91                     RSEG    ?STACK
0000                  92                     DS      90
                      93     
                      94                     EXTRN CODE (?C_START)
                      95                     PUBLIC  ?C_STARTUP
                      96     
                      97     ;****************************************************************************
                      98     ;2015.07.22 : Modify for merge ISP at source code
                      99     ;****************************************************************************
                     100     IF Enable_USB_ISP <> 0
----                 101                     CSEG    AT      0EFFBh
EFFB                 102     USER_Entrance:
EFFB 020000   F      103                     LJMP    STARTUP1
EFFE 00              104                     DB      0
EFFF 00              105                     DB      0
F000                 106     Addr_ISPMain:           
                     107                     ;#include "ISP_SH68F90_1107.INC"
F000 C2AF7581   +1   108     DB 0C2h,0AFh,075h,081h,070h,0E4h,0F5h,0B1h,075h,0B2h,080h,07Fh,005h,0FEh,012h,0FBh 
F004 70E4F5B1                
F008 75B2807F                
F00C 05FE12FB                
F010 A575B20C   +1   109     DB 0A5h,075h,0B2h,00Ch,012h,0F5h,0A2h,075h,03Bh,0EFh,075h,03Ch,0FBh,085h,03Ch,082h 
F014 12F5A275                
F018 3BEF753C                
F01C FB853C82                
F020 853B83E4   +1   110     DB 085h,03Bh,083h,0E4h,093h,064h,002h,060h,02Ah,075h,08Fh,001h,07Fh,0F4h,07Eh,001h 
F024 93640260                
F028 2A758F01                
F02C 7FF47E01                
F030 12FBA575   +1   111     DB 012h,0FBh,0A5h,075h,0B2h,008h,07Fh,005h,07Eh,000h,012h,0FBh,0A5h,075h,0BCh,002h 
F034 B2087F05                
A51 MACRO ASSEMBLER  STARTUP                                                              09/23/2022 11:52:48 PAGE     3

F038 7E0012FB                
F03C A575BC02                
F040 7FD07E07   +1   112     DB 07Fh,0D0h,07Eh,007h,012h,0FBh,0A5h,075h,0BCh,003h,075h,0B2h,00Ch,012h,0FAh,0DAh 
F044 12FBA575                
F048 BC0375B2                
F04C 0C12FADA                
F050 12FC0302   +1   113     DB 012h,0FCh,003h,002h,0FCh,02Bh,0E5h,042h,064h,0AAh,060h,003h,002h,0F1h,02Dh,0F5h 
F054 FC2BE542                
F058 64AA6003                
F05C 02F12DF5                
F060 42752F11   +1   114     DB 042h,075h,02Fh,011h,075h,030h,008h,0E5h,024h,0B4h,005h,014h,005h,030h,0E5h,030h 
F064 753008E5                
F068 24B40514                
F06C 0530E530                
F070 AE2F7002   +1   115     DB 0AEh,02Fh,070h,002h,005h,02Fh,014h,0F5h,082h,08Eh,083h,074h,005h,0F0h,080h,012h 
F074 052F14F5                
F078 828E8374                
F07C 05F08012                
F080 0530E530   +1   116     DB 005h,030h,0E5h,030h,0AEh,02Fh,070h,002h,005h,02Fh,014h,0F5h,082h,08Eh,083h,074h 
F084 AE2F7002                
F088 052F14F5                
F08C 828E8374                
F090 06F00530   +1   117     DB 006h,0F0h,005h,030h,0E5h,030h,0AEh,02Fh,070h,002h,005h,02Fh,014h,0F5h,082h,08Eh 
F094 E530AE2F                
F098 7002052F                
F09C 14F5828E                
F0A0 837449F0   +1   118     DB 083h,074h,049h,0F0h,075h,03Bh,00Ch,075h,03Ch,000h,085h,03Ch,082h,085h,03Bh,083h 
F0A4 753B0C75                
F0A8 3C00853C                
F0AC 82853B83                
F0B0 E493FF05   +1   119     DB 0E4h,093h,0FFh,005h,030h,0E5h,030h,0ACh,02Fh,070h,002h,005h,02Fh,014h,0F5h,082h 
F0B4 30E530AC                
F0B8 2F700205                
F0BC 2F14F582                
F0C0 8C83EFF0   +1   120     DB 08Ch,083h,0EFh,0F0h,075h,03Bh,00Ch,075h,03Ch,001h,085h,03Ch,082h,085h,03Bh,083h 
F0C4 753B0C75                
F0C8 3C01853C                
F0CC 82853B83                
F0D0 E493FF05   +1   121     DB 0E4h,093h,0FFh,005h,030h,0E5h,030h,0ACh,02Fh,070h,002h,005h,02Fh,014h,0F5h,082h 
F0D4 30E530AC                
F0D8 2F700205                
F0DC 2F14F582                
F0E0 8C83EFF0   +1   122     DB 08Ch,083h,0EFh,0F0h,075h,03Bh,00Ch,075h,03Ch,002h,085h,03Ch,082h,085h,03Bh,083h 
F0E4 753B0C75                
F0E8 3C02853C                
F0EC 82853B83                
F0F0 E493FF05   +1   123     DB 0E4h,093h,0FFh,005h,030h,0E5h,030h,0ACh,02Fh,070h,002h,005h,02Fh,014h,0F5h,082h 
F0F4 30E530AC                
F0F8 2F700205                
F0FC 2F14F582                
F100 8C83EFF0   +1   124     DB 08Ch,083h,0EFh,0F0h,075h,03Bh,00Ch,075h,03Ch,003h,085h,03Ch,082h,085h,03Bh,083h 
F104 753B0C75                
F108 3C03853C                
F10C 82853B83                
F110 E493FF05   +1   125     DB 0E4h,093h,0FFh,005h,030h,0E5h,030h,0ACh,02Fh,070h,002h,005h,02Fh,014h,0F5h,082h 
F114 30E530AC                
F118 2F700205                
F11C 2F14F582                
F120 8C83EFF0   +1   126     DB 08Ch,083h,0EFh,0F0h,053h,09Bh,0F0h,075h,09Bh,008h,002h,0F2h,05Fh,075h,02Fh,011h 
F124 539BF075                
F128 9B0802F2                
F12C 5F752F11                
F130 753008E5   +1   127     DB 075h,030h,008h,0E5h,024h,0B4h,005h,014h,005h,030h,0E5h,030h,0AEh,02Fh,070h,002h 
F134 24B40514                
F138 0530E530                
F13C AE2F7002                
A51 MACRO ASSEMBLER  STARTUP                                                              09/23/2022 11:52:48 PAGE     4

F140 052F14F5   +1   128     DB 005h,02Fh,014h,0F5h,082h,08Eh,083h,074h,005h,0F0h,080h,012h,005h,030h,0E5h,030h 
F144 828E8374                
F148 05F08012                
F14C 0530E530                
F150 AE2F7002   +1   129     DB 0AEh,02Fh,070h,002h,005h,02Fh,014h,0F5h,082h,08Eh,083h,074h,006h,0F0h,005h,030h 
F154 052F14F5                
F158 828E8374                
F15C 06F00530                
F160 E530AE2F   +1   130     DB 0E5h,030h,0AEh,02Fh,070h,002h,005h,02Fh,014h,0F5h,082h,08Eh,083h,074h,072h,0F0h 
F164 7002052F                
F168 14F5828E                
F16C 837472F0                
F170 E521B401   +1   131     DB 0E5h,021h,0B4h,001h,008h,085h,031h,03Bh,085h,032h,03Ch,080h,006h,075h,03Bh,0F0h 
F174 0885313B                
F178 85323C80                
F17C 06753BF0                
F180 753C00E5   +1   132     DB 075h,03Ch,000h,0E5h,03Ch,045h,03Bh,070h,05Ah,005h,030h,0E5h,030h,0AEh,02Fh,070h 
F184 3C453B70                
F188 5A0530E5                
F18C 30AE2F70                
F190 02052F14   +1   133     DB 002h,005h,02Fh,014h,0F5h,082h,08Eh,083h,074h,002h,0F0h,075h,03Bh,0EFh,075h,03Ch 
F194 F5828E83                
F198 7402F075                
F19C 3BEF753C                
F1A0 FC853C82   +1   134     DB 0FCh,085h,03Ch,082h,085h,03Bh,083h,0E4h,093h,0FFh,005h,030h,0E5h,030h,0ACh,02Fh 
F1A4 853B83E4                
F1A8 93FF0530                
F1AC E530AC2F                
F1B0 7002052F   +1   135     DB 070h,002h,005h,02Fh,014h,0F5h,082h,08Ch,083h,0EFh,0F0h,075h,03Bh,0EFh,075h,03Ch 
F1B4 14F5828C                
F1B8 83EFF075                
F1BC 3BEF753C                
F1C0 FD853C82   +1   136     DB 0FDh,085h,03Ch,082h,085h,03Bh,083h,0E4h,093h,0FFh,005h,030h,0E5h,030h,0ACh,02Fh 
F1C4 853B83E4                
F1C8 93FF0530                
F1CC E530AC2F                
F1D0 7002052F   +1   137     DB 070h,002h,005h,02Fh,014h,0F5h,082h,08Ch,083h,0EFh,0F0h,075h,03Bh,000h,075h,03Ch 
F1D4 14F5828C                
F1D8 83EFF075                
F1DC 3B00753C                
F1E0 03805785   +1   138     DB 003h,080h,057h,085h,03Ch,082h,085h,03Bh,083h,0E4h,093h,0FFh,005h,030h,0E5h,030h 
F1E4 3C82853B                
F1E8 83E493FF                
F1EC 0530E530                
F1F0 AC2F7002   +1   139     DB 0ACh,02Fh,070h,002h,005h,02Fh,014h,0F5h,082h,08Ch,083h,0EFh,0F0h,012h,0FBh,0EDh 
F1F4 052F14F5                
F1F8 828C83EF                
F1FC F012FBED                
F200 853C8285   +1   140     DB 085h,03Ch,082h,085h,03Bh,083h,0E4h,093h,0FFh,005h,030h,0E5h,030h,0ACh,02Fh,070h 
F204 3B83E493                
F208 FF0530E5                
F20C 30AC2F70                
F210 02052F14   +1   141     DB 002h,005h,02Fh,014h,0F5h,082h,08Ch,083h,0EFh,0F0h,012h,0FBh,0EDh,085h,03Ch,082h 
F214 F5828C83                
F218 EFF012FB                
F21C ED853C82                
F220 853B83E4   +1   142     DB 085h,03Bh,083h,0E4h,093h,0FFh,005h,030h,0E5h,030h,0ACh,02Fh,070h,002h,005h,02Fh 
F224 93FF0530                
F228 E530AC2F                
F22C 7002052F                
F230 14F5828C   +1   143     DB 014h,0F5h,082h,08Ch,083h,0EFh,0F0h,012h,0FBh,0EDh,085h,03Ch,082h,085h,03Bh,083h 
F234 83EFF012                
F238 FBED853C                
F23C 82853B83                
F240 E493FF05   +1   144     DB 0E4h,093h,0FFh,005h,030h,0E5h,030h,0ACh,02Fh,070h,002h,005h,02Fh,014h,0F5h,082h 
F244 30E530AC                
A51 MACRO ASSEMBLER  STARTUP                                                              09/23/2022 11:52:48 PAGE     5

F248 2F700205                
F24C 2F14F582                
F250 8C83EFF0   +1   145     DB 08Ch,083h,0EFh,0F0h,0E5h,024h,0B4h,005h,00Ah,053h,09Bh,0F0h,043h,09Bh,006h,043h 
F254 E524B405                
F258 0A539BF0                
F25C 439B0643                
F260 97042212   +1   146     DB 097h,004h,022h,012h,0FBh,0EDh,085h,03Ch,082h,085h,03Bh,083h,0E4h,093h,0FFh,005h 
F264 FBED853C                
F268 82853B83                
F26C E493FF05                
F270 30E530AC   +1   147     DB 030h,0E5h,030h,0ACh,02Fh,070h,002h,005h,02Fh,014h,0F5h,082h,08Ch,083h,0EFh,0F0h 
F274 2F700205                
F278 2F14F582                
F27C 8C83EFF0                
F280 12FBED85   +1   148     DB 012h,0FBh,0EDh,085h,03Ch,082h,085h,03Bh,083h,0E4h,093h,085h,030h,082h,085h,02Fh 
F284 3C82853B                
F288 83E49385                
F28C 3082852F                
F290 83F0539B   +1   149     DB 083h,0F0h,053h,09Bh,0F0h,043h,09Bh,008h,043h,097h,004h,0E4h,0F5h,0B1h,0E5h,097h 
F294 F0439B08                
F298 439704E4                
F29C F5B1E597                
F2A0 20E2FBE4   +1   150     DB 020h,0E2h,0FBh,0E4h,0FFh,053h,09Bh,0F0h,043h,09Bh,008h,075h,02Fh,011h,075h,030h 
F2A4 FF539BF0                
F2A8 439B0875                
F2AC 2F117530                
F2B0 0812FBED   +1   151     DB 008h,012h,0FBh,0EDh,085h,03Ch,082h,085h,03Bh,083h,0E4h,093h,0FEh,005h,030h,0E5h 
F2B4 853C8285                
F2B8 3B83E493                
F2BC FE0530E5                
F2C0 30AC2F70   +1   152     DB 030h,0ACh,02Fh,070h,002h,005h,02Fh,012h,0FBh,0E6h,085h,03Ch,082h,085h,03Bh,083h 
F2C4 02052F12                
F2C8 FBE6853C                
F2CC 82853B83                
F2D0 E493FE05   +1   153     DB 0E4h,093h,0FEh,005h,030h,0E5h,030h,0ACh,02Fh,070h,002h,005h,02Fh,012h,0FBh,0E6h 
F2D4 30E530AC                
F2D8 2F700205                
F2DC 2F12FBE6                
F2E0 853C8285   +1   154     DB 085h,03Ch,082h,085h,03Bh,083h,0E4h,093h,0FEh,005h,030h,0E5h,030h,0ACh,02Fh,070h 
F2E4 3B83E493                
F2E8 FE0530E5                
F2EC 30AC2F70                
F2F0 02052F12   +1   155     DB 002h,005h,02Fh,012h,0FBh,0E6h,085h,03Ch,082h,085h,03Bh,083h,0E4h,093h,0FEh,005h 
F2F4 FBE6853C                
F2F8 82853B83                
F2FC E493FE05                
F300 30E530AC   +1   156     DB 030h,0E5h,030h,0ACh,02Fh,070h,002h,005h,02Fh,012h,0FBh,0E6h,085h,03Ch,082h,085h 
F304 2F700205                
F308 2F12FBE6                
F30C 853C8285                
F310 3B83E493   +1   157     DB 03Bh,083h,0E4h,093h,0FEh,005h,030h,0E5h,030h,0ACh,02Fh,070h,002h,005h,02Fh,012h 
F314 FE0530E5                
F318 30AC2F70                
F31C 02052F12                
F320 FBE6AC3B   +1   158     DB 0FBh,0E6h,0ACh,03Bh,0ADh,03Ch,0BCh,0EFh,034h,0BDh,0FBh,031h,005h,030h,0E5h,030h 
F324 AD3CBCEF                
F328 34BDFB31                
F32C 0530E530                
F330 AC2F7002   +1   159     DB 0ACh,02Fh,070h,002h,005h,02Fh,014h,0F5h,082h,08Ch,083h,0E4h,0F0h,005h,030h,0E5h 
F334 052F14F5                
F338 828C83E4                
F33C F00530E5                
F340 30AC2F70   +1   160     DB 030h,0ACh,02Fh,070h,002h,005h,02Fh,014h,0F5h,082h,08Ch,083h,0E4h,0F0h,085h,030h 
F344 02052F14                
F348 F5828C83                
F34C E4F08530                
A51 MACRO ASSEMBLER  STARTUP                                                              09/23/2022 11:52:48 PAGE     6

F350 82852F83   +1   161     DB 082h,085h,02Fh,083h,0F0h,075h,03Bh,0EFh,075h,03Ch,0FDh,080h,03Bh,085h,03Ch,082h 
F354 F0753BEF                
F358 753CFD80                
F35C 3B853C82                
F360 853B83E4   +1   162     DB 085h,03Bh,083h,0E4h,093h,0FEh,005h,030h,0E5h,030h,0ACh,02Fh,070h,002h,005h,02Fh 
F364 93FE0530                
F368 E530AC2F                
F36C 7002052F                
F370 12FBE685   +1   163     DB 012h,0FBh,0E6h,085h,03Ch,082h,085h,03Bh,083h,0E4h,093h,0FEh,005h,030h,0E5h,030h 
F374 3C82853B                
F378 83E493FE                
F37C 0530E530                
F380 AC2F7002   +1   164     DB 0ACh,02Fh,070h,002h,005h,02Fh,012h,0FBh,0E6h,085h,03Ch,082h,085h,03Bh,083h,0E4h 
F384 052F12FB                
F388 E6853C82                
F38C 853B83E4                
F390 93853082   +1   165     DB 093h,085h,030h,082h,085h,02Fh,083h,0F0h,043h,097h,004h,0E4h,0F5h,0B1h,0E5h,097h 
F394 852F83F0                
F398 439704E4                
F39C F5B1E597                
F3A0 20E2FB0F   +1   166     DB 020h,0E2h,0FBh,00Fh,0EFh,0F4h,060h,003h,002h,0F2h,0A5h,053h,09Bh,0F0h,043h,09Bh 
F3A4 EFF46003                
F3A8 02F2A553                
F3AC 9BF0439B                
F3B0 02752F11   +1   167     DB 002h,075h,02Fh,011h,075h,030h,008h,012h,0FBh,0EDh,085h,03Ch,082h,085h,03Bh,083h 
F3B4 75300812                
F3B8 FBED853C                
F3BC 82853B83                
F3C0 E493FF05   +1   168     DB 0E4h,093h,0FFh,005h,030h,0E5h,030h,0ACh,02Fh,070h,002h,005h,02Fh,014h,0F5h,082h 
F3C4 30E530AC                
F3C8 2F700205                
F3CC 2F14F582                
F3D0 8C83EFF0   +1   169     DB 08Ch,083h,0EFh,0F0h,012h,0FBh,0EDh,085h,03Ch,082h,085h,03Bh,083h,0E4h,093h,085h 
F3D4 12FBED85                
F3D8 3C82853B                
F3DC 83E49385                
F3E0 3082852F   +1   170     DB 030h,082h,085h,02Fh,083h,0F0h,043h,097h,004h,0E4h,0F5h,0B1h,0E5h,097h,020h,0E2h 
F3E4 83F04397                
F3E8 04E4F5B1                
F3EC E59720E2                
F3F0 FB12FBED   +1   171     DB 0FBh,012h,0FBh,0EDh,085h,03Bh,031h,085h,03Ch,032h,022h,0E4h,0F5h,042h,012h,0FBh 
F3F4 853B3185                
F3F8 3C3222E4                
F3FC F54212FB                
F400 D5E52324   +1   172     DB 0D5h,0E5h,023h,024h,0BBh,070h,003h,002h,0F5h,028h,024h,0FCh,070h,003h,002h,0F5h 
F404 BB700302                
F408 F52824FC                
F40C 700302F5                
F410 9224F470   +1   173     DB 092h,024h,0F4h,070h,003h,002h,0F5h,053h,024h,0FEh,060h,02Bh,024h,0FDh,070h,003h 
F414 0302F553                
F418 24FE602B                
F41C 24FD7003                
F420 02F56724   +1   174     DB 002h,0F5h,067h,024h,0F1h,070h,003h,002h,0F5h,06Ch,024h,0F2h,060h,02Bh,024h,025h 
F424 F1700302                
F428 F56C24F2                
F42C 602B2425                
F430 600302F5   +1   175     DB 060h,003h,002h,0F5h,095h,0E4h,0F5h,031h,0F5h,032h,0E5h,032h,045h,025h,0F5h,031h 
F434 95E4F531                
F438 F532E532                
F43C 4525F531                
F440 E524F532   +1   176     DB 0E5h,024h,0F5h,032h,002h,0F5h,095h,0E4h,0F5h,033h,0F5h,034h,0E5h,034h,045h,025h 
F444 02F595E4                
F448 F533F534                
F44C E5344525                
F450 F533E524   +1   177     DB 0F5h,033h,0E5h,024h,0F5h,034h,002h,0F5h,095h,0D3h,0E4h,095h,034h,074h,0F0h,095h 
F454 F53402F5                
A51 MACRO ASSEMBLER  STARTUP                                                              09/23/2022 11:52:48 PAGE     7

F458 95D3E495                
F45C 3474F095                
F460 33500302   +1   178     DB 033h,050h,003h,002h,0F5h,095h,0E5h,034h,045h,033h,070h,01Ah,0ADh,025h,07Fh,0FCh 
F464 F595E534                
F468 4533701A                
F46C AD257FFC                
F470 7EEF12FB   +1   179     DB 07Eh,0EFh,012h,0FBh,00Ch,0ADh,026h,07Fh,0FDh,07Eh,0EFh,012h,0FBh,00Ch,075h,033h 
F474 0CAD267F                
F478 FD7EEF12                
F47C FB0C7533                
F480 00753403   +1   180     DB 000h,075h,034h,003h,080h,024h,0ADh,024h,0AFh,034h,0AEh,033h,012h,0FBh,00Ch,012h 
F484 8024AD24                
F488 AF34AE33                
F48C 12FB0C12                
F490 FC0EAD25   +1   181     DB 0FCh,00Eh,0ADh,025h,0AFh,034h,0AEh,033h,012h,0FBh,00Ch,012h,0FCh,00Eh,0ADh,026h 
F494 AF34AE33                
F498 12FB0C12                
F49C FC0EAD26                
F4A0 AF34AE33   +1   182     DB 0AFh,034h,0AEh,033h,012h,0FBh,00Ch,012h,0FCh,00Eh,0ADh,027h,0AFh,034h,0AEh,033h 
F4A4 12FB0C12                
F4A8 FC0EAD27                
F4AC AF34AE33                
F4B0 12FB0CE5   +1   183     DB 012h,0FBh,00Ch,0E5h,022h,0B4h,005h,003h,002h,0F5h,095h,0E5h,022h,064h,006h,060h 
F4B4 22B40503                
F4B8 02F595E5                
F4BC 22640660                
F4C0 0302F595   +1   184     DB 003h,002h,0F5h,095h,012h,0FCh,00Eh,0ADh,028h,0AFh,034h,0AEh,033h,012h,0FBh,00Ch 
F4C4 12FC0EAD                
F4C8 28AF34AE                
F4CC 3312FB0C                
F4D0 12FC0EAD   +1   185     DB 012h,0FCh,00Eh,0ADh,029h,0AFh,034h,0AEh,033h,012h,0FBh,00Ch,0E4h,0F5h,00Ah,012h 
F4D4 29AF34AE                
F4D8 3312FB0C                
F4DC E4F50A12                
F4E0 FBD5E4F5   +1   186     DB 0FBh,0D5h,0E4h,0F5h,00Bh,012h,0FCh,00Eh,074h,022h,025h,00Bh,0F8h,0E6h,0FDh,0AFh 
F4E4 0B12FC0E                
F4E8 7422250B                
F4EC F8E6FDAF                
F4F0 34AE3312   +1   187     DB 034h,0AEh,033h,012h,0FBh,00Ch,005h,00Bh,0E5h,00Bh,0C3h,094h,008h,040h,0E6h,005h 
F4F4 FB0C050B                
F4F8 E50BC394                
F4FC 0840E605                
F500 0AE50AC3   +1   188     DB 00Ah,0E5h,00Ah,0C3h,094h,0FFh,040h,0D7h,012h,0FBh,0D5h,012h,0FCh,00Eh,0ADh,022h 
F504 94FF40D7                
F508 12FBD512                
F50C FC0EAD22                
F510 AF34AE33   +1   189     DB 0AFh,034h,0AEh,033h,012h,0FBh,00Ch,012h,0FCh,00Eh,0ADh,023h,0AFh,034h,0AEh,033h 
F514 12FB0C12                
F518 FC0EAD23                
F51C AF34AE33                
F520 12FB0C12   +1   190     DB 012h,0FBh,00Ch,012h,0FCh,00Eh,080h,06Dh,075h,00Ah,078h,0E5h,00Ah,014h,0FFh,012h 
F524 FC0E806D                
F528 750A78E5                
F52C 0A14FF12                
F530 FB37150A   +1   191     DB 0FBh,037h,015h,00Ah,0E5h,00Ah,0D3h,094h,000h,050h,0F0h,07Dh,0F0h,07Fh,001h,07Eh 
F534 E50AD394                
F538 0050F07D                
F53C F07F017E                
F540 0012FB0C   +1   192     DB 000h,012h,0FBh,00Ch,0E4h,0FDh,07Fh,002h,0FEh,012h,0FBh,00Ch,07Dh,002h,0E4h,0FFh 
F544 E4FD7F02                
F548 FE12FB0C                
F54C 7D02E4FF                
F550 FE800C53   +1   193     DB 0FEh,080h,00Ch,053h,09Bh,0F0h,043h,097h,004h,07Dh,002h,07Fh,0FBh,07Eh,0EFh,012h 
F554 9BF04397                
F558 047D027F                
F55C FB7EEF12                
A51 MACRO ASSEMBLER  STARTUP                                                              09/23/2022 11:52:48 PAGE     8

F560 FB0C7521   +1   194     DB 0FBh,00Ch,075h,021h,001h,080h,02Eh,075h,0B1h,007h,080h,0FEh,0ADh,024h,07Fh,0F7h 
F564 01802E75                
F568 B10780FE                
F56C AD247FF7                
F570 7EEF12FB   +1   195     DB 07Eh,0EFh,012h,0FBh,00Ch,0ADh,025h,07Fh,0F8h,07Eh,0EFh,012h,0FBh,00Ch,0ADh,026h 
F574 0CAD257F                
F578 F87EEF12                
F57C FB0CAD26                
F580 7FF97EEF   +1   196     DB 07Fh,0F9h,07Eh,0EFh,012h,0FBh,00Ch,0ADh,027h,07Fh,0FAh,07Eh,0EFh,012h,0FBh,00Ch 
F584 12FB0CAD                
F588 277FFA7E                
F58C EF12FB0C                
F590 80037542   +1   197     DB 080h,003h,075h,042h,0AAh,053h,09Bh,0F0h,043h,097h,004h,053h,092h,0AFh,043h,097h 
F594 AA539BF0                
F598 43970453                
F59C 92AF4397                
F5A0 0122C204   +1   198     DB 001h,022h,0C2h,004h,075h,008h,096h,0E4h,0F5h,0B1h,053h,0E9h,0FCh,053h,0E1h,0FCh 
F5A4 750896E4                
F5A8 F5B153E9                
F5AC FC53E1FC                
F5B0 7F0AFE12   +1   199     DB 07Fh,00Ah,0FEh,012h,0FBh,0A5h,030h,081h,003h,002h,0F7h,021h,020h,080h,003h,002h 
F5B4 FBA53081                
F5B8 0302F721                
F5BC 20800302                
F5C0 F721D204   +1   200     DB 0F7h,021h,0D2h,004h,0D5h,008h,0E0h,075h,00Ch,014h,053h,0E9h,0FCh,053h,0E1h,0FCh 
F5C4 D508E075                
F5C8 0C1453E9                
F5CC FC53E1FC                
F5D0 C28143E1   +1   201     DB 0C2h,081h,043h,0E1h,002h,043h,0E9h,001h,07Fh,001h,07Eh,000h,012h,0FBh,0A5h,053h 
F5D4 0243E901                
F5D8 7F017E00                
F5DC 12FBA553                
F5E0 E9FC53E1   +1   202     DB 0E9h,0FCh,053h,0E1h,0FCh,043h,0E9h,002h,07Fh,00Ah,07Eh,000h,012h,0FBh,0A5h,075h 
F5E4 FC43E902                
F5E8 7F0A7E00                
F5EC 12FBA575                
F5F0 0964E4F5   +1   203     DB 009h,064h,0E4h,0F5h,0B1h,030h,081h,003h,020h,080h,004h,0C2h,004h,080h,003h,0D5h 
F5F4 B1308103                
F5F8 208004C2                
F5FC 048003D5                
F600 09F02004   +1   204     DB 009h,0F0h,020h,004h,003h,002h,0F6h,0C9h,053h,0E9h,0FCh,053h,0E1h,0FCh,0C2h,081h 
F604 0302F6C9                
F608 53E9FC53                
F60C E1FCC281                
F610 43E10243   +1   205     DB 043h,0E1h,002h,043h,0E9h,001h,07Fh,001h,07Eh,000h,012h,0FBh,0A5h,053h,0E9h,0FCh 
F614 E9017F01                
F618 7E0012FB                
F61C A553E9FC                
F620 53E1FC43   +1   206     DB 053h,0E1h,0FCh,043h,0E9h,002h,0C2h,080h,043h,0E1h,001h,07Fh,00Ah,07Eh,000h,012h 
F624 E902C280                
F628 43E1017F                
F62C 0A7E0012                
F630 FBA57509   +1   207     DB 0FBh,0A5h,075h,009h,064h,0E4h,0F5h,0B1h,020h,081h,003h,030h,080h,004h,0C2h,004h 
F634 64E4F5B1                
F638 20810330                
F63C 8004C204                
F640 8003D509   +1   208     DB 080h,003h,0D5h,009h,0F0h,020h,004h,003h,002h,0F6h,0C9h,053h,0E9h,0FCh,053h,0E1h 
F644 F0200403                
F648 02F6C953                
F64C E9FC53E1                
F650 FCC28143   +1   209     DB 0FCh,0C2h,081h,043h,0E1h,002h,043h,0E9h,001h,07Fh,001h,07Eh,000h,012h,0FBh,0A5h 
F654 E10243E9                
F658 017F017E                
F65C 0012FBA5                
F660 53E9FC53   +1   210     DB 053h,0E9h,0FCh,053h,0E1h,0FCh,07Fh,00Ah,07Eh,000h,012h,0FBh,0A5h,075h,009h,064h 
F664 E1FC7F0A                
A51 MACRO ASSEMBLER  STARTUP                                                              09/23/2022 11:52:48 PAGE     9

F668 7E0012FB                
F66C A5750964                
F670 E4F5B120   +1   211     DB 0E4h,0F5h,0B1h,020h,081h,003h,020h,080h,004h,0C2h,004h,080h,003h,0D5h,009h,0F0h 
F674 81032080                
F678 04C20480                
F67C 03D509F0                
F680 30044653   +1   212     DB 030h,004h,046h,053h,0E9h,0FCh,053h,0E1h,0FCh,0C2h,081h,043h,0E1h,002h,043h,0E9h 
F684 E9FC53E1                
F688 FCC28143                
F68C E10243E9                
F690 017F017E   +1   213     DB 001h,07Fh,001h,07Eh,000h,012h,0FBh,0A5h,053h,0E9h,0FCh,053h,0E1h,0FCh,0C2h,081h 
F694 0012FBA5                
F698 53E9FC53                
F69C E1FCC281                
F6A0 43E1027F   +1   214     DB 043h,0E1h,002h,07Fh,00Ah,07Eh,000h,012h,0FBh,0A5h,075h,009h,064h,0E4h,0F5h,0B1h 
F6A4 0A7E0012                
F6A8 FBA57509                
F6AC 64E4F5B1                
F6B0 20810320   +1   215     DB 020h,081h,003h,020h,080h,004h,0C2h,004h,080h,003h,0D5h,009h,0F0h,030h,004h,009h 
F6B4 8004C204                
F6B8 8003D509                
F6BC F0300409                
F6C0 150CE50C   +1   216     DB 015h,00Ch,0E5h,00Ch,060h,003h,002h,0F5h,0CAh,030h,004h,057h,053h,0E9h,0FCh,053h 
F6C4 600302F5                
F6C8 CA300457                
F6CC 53E9FC53                
F6D0 E1FC7509   +1   217     DB 0E1h,0FCh,075h,009h,003h,075h,03Bh,0EFh,075h,03Ch,0FBh,085h,03Ch,082h,085h,03Bh 
F6D4 03753BEF                
F6D8 753CFB85                
F6DC 3C82853B                
F6E0 83E493B4   +1   218     DB 083h,0E4h,093h,0B4h,002h,00Bh,0E4h,0F5h,0B1h,07Fh,077h,012h,0FBh,037h,0D5h,009h 
F6E4 020BE4F5                
F6E8 B17F7712                
F6EC FB37D509                
F6F0 E443E902   +1   219     DB 0E4h,043h,0E9h,002h,053h,0E1h,0FDh,030h,004h,009h,0C2h,004h,0C2h,080h,043h,0E1h 
F6F4 53E1FD30                
F6F8 0409C204                
F6FC C28043E1                
F700 018005D2   +1   220     DB 001h,080h,005h,0D2h,004h,053h,0E1h,0FEh,075h,00Ah,0C3h,075h,00Bh,050h,0E5h,00Bh 
F704 0453E1FE                
F708 750AC375                
F70C 0B50E50B                
F710 450A60DD   +1   221     DB 045h,00Ah,060h,0DDh,0E4h,0F5h,0B1h,0E5h,00Bh,015h,00Bh,070h,0F1h,015h,00Ah,080h 
F714 E4F5B1E5                
F718 0B150B70                
F71C F1150A80                
F720 EDC20453   +1   222     DB 0EDh,0C2h,004h,053h,0E9h,0FCh,053h,0E1h,0FCh,022h,005h,001h,009h,006h,0A1h,001h 
F724 E9FC53E1                
F728 FC220501                
F72C 0906A101                
F730 85010507   +1   223     DB 085h,001h,005h,007h,019h,0E0h,029h,0E7h,015h,000h,025h,001h,075h,001h,095h,008h 
F734 19E029E7                
F738 15002501                
F73C 75019508                
F740 81029506   +1   224     DB 081h,002h,095h,006h,075h,008h,015h,000h,026h,0FFh,000h,005h,007h,019h,000h,02Ah 
F744 75081500                
F748 26FF0005                
F74C 0719002A                
F750 FF008100   +1   225     DB 0FFh,000h,081h,000h,0C0h,006h,000h,0FFh,009h,001h,0A1h,001h,085h,005h,015h,000h 
F754 C00600FF                
F758 0901A101                
F75C 85051500                
F760 25FF1901   +1   226     DB 025h,0FFh,019h,001h,029h,005h,075h,008h,095h,005h,0B1h,002h,0C0h,006h,000h,0FFh 
F764 29057508                
F768 9505B102                
F76C C00600FF                
A51 MACRO ASSEMBLER  STARTUP                                                              09/23/2022 11:52:48 PAGE    10

F770 0901A101   +1   227     DB 009h,001h,0A1h,001h,085h,006h,015h,000h,025h,0FFh,019h,001h,029h,002h,075h,008h 
F774 85061500                
F778 25FF1901                
F77C 29027508                
F780 960108B1   +1   228     DB 096h,001h,008h,0B1h,002h,0C0h,012h,001h,010h,001h,000h,000h,000h,008h,003h,006h 
F784 02C01201                
F788 10010000                
F78C 00080306                
F790 20100001   +1   229     DB 020h,010h,000h,001h,000h,000h,000h,001h,009h,002h,01Bh,000h,001h,001h,000h,080h 
F794 00000001                
F798 09021B00                
F79C 01010080                
F7A0 32090400   +1   230     DB 032h,009h,004h,000h,000h,000h,003h,000h,000h,000h,009h,021h,011h,001h,000h,001h 
F7A4 00000300                
F7A8 00000921                
F7AC 11010001                
F7B0 225C00FF   +1   231     DB 022h,05Ch,000h,0FFh,0FCh,01Eh,0FFh,0FBh,084h,0FFh,0FCh,025h,0FFh,0F7h,0DDh,0FFh 
F7B4 FC1EFFFB                
F7B8 84FFFC25                
F7BC FFF7DDFF                
F7C0 F056FFF3   +1   232     DB 0F0h,056h,0FFh,0F3h,0FBh,0FFh,0FBh,0F6h,000h,005h,001h,000h,009h,002h,080h,006h 
F7C4 FBFFFBF6                
F7C8 00050100                
F7CC 09028006                
F7D0 03810603   +1   233     DB 003h,081h,006h,003h,0A1h,001h,004h,021h,009h,005h,021h,00Ah,006h,0E5h,025h,064h 
F7D4 A1010421                
F7D8 0905210A                
F7DC 06E52564                
F7E0 01702EF5   +1   234     DB 001h,070h,02Eh,0F5h,035h,075h,036h,012h,0E5h,029h,0F5h,02Dh,0E5h,028h,0F5h,02Eh 
F7E4 35753612                
F7E8 E529F52D                
F7EC E528F52E                
F7F0 C3E52E95   +1   235     DB 0C3h,0E5h,02Eh,095h,036h,0E5h,02Dh,095h,035h,050h,006h,0AEh,02Dh,0AFh,02Eh,080h 
F7F4 36E52D95                
F7F8 355006AE                
F7FC 2DAF2E80                
F800 04AE35AF   +1   236     DB 004h,0AEh,035h,0AFh,036h,08Eh,035h,08Fh,036h,075h,03Bh,0F7h,075h,03Ch,086h,080h 
F804 368E358F                
F808 36753BF7                
F80C 753C8680                
F810 6FE52564   +1   237     DB 06Fh,0E5h,025h,064h,002h,070h,02Eh,0F5h,035h,075h,036h,01Bh,0E5h,029h,0F5h,02Dh 
F814 02702EF5                
F818 3575361B                
F81C E529F52D                
F820 E528F52E   +1   238     DB 0E5h,028h,0F5h,02Eh,0C3h,0E5h,02Eh,095h,036h,0E5h,02Dh,095h,035h,050h,006h,0AEh 
F824 C3E52E95                
F828 36E52D95                
F82C 355006AE                
F830 2DAF2E80   +1   239     DB 02Dh,0AFh,02Eh,080h,004h,0AEh,035h,0AFh,036h,08Eh,035h,08Fh,036h,075h,03Bh,0F7h 
F834 04AE35AF                
F838 368E358F                
F83C 36753BF7                
F840 753C9880   +1   240     DB 075h,03Ch,098h,080h,03Bh,0E5h,025h,064h,022h,070h,032h,0E5h,026h,070h,02Eh,075h 
F844 3BE52564                
F848 227032E5                
F84C 26702E75                
F850 3BF7753C   +1   241     DB 03Bh,0F7h,075h,03Ch,02Ah,0F5h,035h,075h,036h,05Ch,0E5h,029h,0F5h,02Dh,0E5h,028h 
F854 2AF53575                
F858 365CE529                
F85C F52DE528                
F860 F52EC3E5   +1   242     DB 0F5h,02Eh,0C3h,0E5h,02Eh,095h,036h,0E5h,02Dh,095h,035h,050h,006h,0AEh,02Dh,0AFh 
F864 2E9536E5                
F868 2D953550                
F86C 06AE2DAF                
F870 2E8004AE   +1   243     DB 02Eh,080h,004h,0AEh,035h,0AFh,036h,08Eh,035h,08Fh,036h,080h,003h,002h,0FCh,01Eh 
F874 35AF368E                
A51 MACRO ASSEMBLER  STARTUP                                                              09/23/2022 11:52:48 PAGE    11

F878 358F3680                
F87C 0302FC1E                
F880 12F98543   +1   244     DB 012h,0F9h,085h,043h,097h,004h,022h,078h,07Fh,0E4h,0F6h,0D8h,0FDh,075h,081h,043h 
F884 97042278                
F888 7FE4F6D8                
F88C FD758143                
F890 02F8CE02   +1   245     DB 002h,0F8h,0CEh,002h,0F0h,000h,0E4h,093h,0A3h,0F8h,0E4h,093h,0A3h,040h,003h,0F6h 
F894 F000E493                
F898 A3F8E493                
F89C A34003F6                
F8A0 8001F208   +1   246     DB 080h,001h,0F2h,008h,0DFh,0F4h,080h,029h,0E4h,093h,0A3h,0F8h,054h,007h,024h,00Ch 
F8A4 DFF48029                
F8A8 E493A3F8                
F8AC 5407240C                
F8B0 C8C333C4   +1   247     DB 0C8h,0C3h,033h,0C4h,054h,00Fh,044h,020h,0C8h,083h,040h,004h,0F4h,056h,080h,001h 
F8B4 540F4420                
F8B8 C8834004                
F8BC F4568001                
F8C0 46F6DFE4   +1   248     DB 046h,0F6h,0DFh,0E4h,080h,00Bh,001h,002h,004h,008h,010h,020h,040h,080h,090h,0FCh 
F8C4 800B0102                
F8C8 04081020                
F8CC 408090FC                
F8D0 37E47E01   +1   249     DB 037h,0E4h,07Eh,001h,093h,060h,0BCh,0A3h,0FFh,054h,03Fh,030h,0E5h,009h,054h,01Fh 
F8D4 9360BCA3                
F8D8 FF543F30                
F8DC E509541F                
F8E0 FEE493A3   +1   250     DB 0FEh,0E4h,093h,0A3h,060h,001h,00Eh,0CFh,054h,0C0h,025h,0E0h,060h,0A8h,040h,0B8h 
F8E4 60010ECF                
F8E8 54C025E0                
F8EC 60A840B8                
F8F0 E493A3FA   +1   251     DB 0E4h,093h,0A3h,0FAh,0E4h,093h,0A3h,0F8h,0E4h,093h,0A3h,0C8h,0C5h,082h,0C8h,0CAh 
F8F4 E493A3F8                
F8F8 E493A3C8                
F8FC C582C8CA                
F900 C583CAF0   +1   252     DB 0C5h,083h,0CAh,0F0h,0A3h,0C8h,0C5h,082h,0C8h,0CAh,0C5h,083h,0CAh,0DFh,0E9h,0DEh 
F904 A3C8C582                
F908 C8CAC583                
F90C CADFE9DE                
F910 E780BE85   +1   253     DB 0E7h,080h,0BEh,085h,092h,037h,0E5h,037h,060h,04Bh,053h,092h,0E7h,053h,092h,09Fh 
F914 9237E537                
F918 604B5392                
F91C E753929F                
F920 E53730E7   +1   254     DB 0E5h,037h,030h,0E7h,005h,053h,092h,07Fh,080h,03Bh,0E5h,037h,030h,0E4h,005h,012h 
F924 0553927F                
F928 803BE537                
F92C 30E40512                
F930 FA4E8031   +1   255     DB 0FAh,04Eh,080h,031h,0E5h,037h,030h,0E2h,005h,053h,092h,0FBh,080h,027h,0E5h,037h 
F934 E53730E2                
F938 055392FB                
F93C 8027E537                
F940 30E10553   +1   256     DB 030h,0E1h,005h,053h,092h,0FDh,080h,01Dh,0E5h,037h,030h,0E0h,018h,053h,092h,0FEh 
F944 92FD801D                
F948 E53730E0                
F94C 185392FE                
F950 43912000   +1   257     DB 043h,091h,020h,000h,000h,000h,000h,000h,000h,053h,091h,0DFh,012h,0FBh,0C1h,053h 
F954 00000000                
F958 005391DF                
F95C 12FBC153                
F960 92AF4397   +1   258     DB 092h,0AFh,043h,097h,001h,085h,093h,038h,0E5h,038h,060h,018h,030h,0E4h,00Ah,053h 
F964 01859338                
F968 E5386018                
F96C 30E40A53                
F970 93EF5392   +1   259     DB 093h,0EFh,053h,092h,0AFh,043h,097h,001h,022h,0E5h,038h,030h,0E0h,006h,053h,093h 
F974 AF439701                
F978 22E53830                
F97C E0065393                
A51 MACRO ASSEMBLER  STARTUP                                                              09/23/2022 11:52:48 PAGE    12

F980 FE12FB5E   +1   260     DB 0FEh,012h,0FBh,05Eh,022h,0E5h,036h,045h,035h,070h,007h,075h,043h,002h,053h,09Bh 
F984 22E53645                
F988 35700775                
F98C 4302539B                
F990 F022D3E5   +1   261     DB 0F0h,022h,0D3h,0E5h,036h,094h,008h,0E5h,035h,094h,000h,040h,01Fh,075h,043h,001h 
F994 369408E5                
F998 35940040                
F99C 1F754301                
F9A0 74F82536   +1   262     DB 074h,0F8h,025h,036h,0F5h,036h,074h,0FFh,035h,035h,0F5h,035h,012h,0FAh,0A2h,074h 
F9A4 F53674FF                
F9A8 3535F535                
F9AC 12FAA274                
F9B0 08253CF5   +1   263     DB 008h,025h,03Ch,0F5h,03Ch,0E4h,035h,03Bh,0F5h,03Bh,080h,013h,0E5h,036h,064h,008h 
F9B4 3CE4353B                
F9B8 F53B8013                
F9BC E5366408                
F9C0 45357012   +1   264     DB 045h,035h,070h,012h,075h,043h,002h,012h,0FAh,0A2h,0E4h,0F5h,035h,0F5h,036h,053h 
F9C4 75430212                
F9C8 FAA2E4F5                
F9CC 35F53653                
F9D0 9BF0439B   +1   265     DB 09Bh,0F0h,043h,09Bh,008h,022h,075h,043h,002h,0ADh,036h,012h,0FAh,0A4h,053h,09Bh 
F9D4 08227543                
F9D8 02AD3612                
F9DC FAA4539B                
F9E0 F0E53642   +1   266     DB 0F0h,0E5h,036h,042h,09Bh,0E4h,0F5h,035h,0F5h,036h,022h,075h,02Fh,011h,075h,030h 
F9E4 9BE4F535                
F9E8 F5362275                
F9EC 2F117530                
F9F0 00853082   +1   267     DB 000h,085h,030h,082h,085h,02Fh,083h,0E0h,0F5h,022h,0A3h,0E0h,0F5h,023h,085h,030h 
F9F4 852F83E0                
F9F8 F522A3E0                
F9FC F5238530                
FA00 82852F83   +1   268     DB 082h,085h,02Fh,083h,0A3h,0A3h,0E0h,0F5h,024h,085h,030h,082h,085h,02Fh,083h,0A3h 
FA04 A3A3E0F5                
FA08 24853082                
FA0C 852F83A3                
FA10 A3A3E0F5   +1   269     DB 0A3h,0A3h,0E0h,0F5h,025h,0E5h,030h,024h,004h,0F5h,082h,0E4h,035h,02Fh,0F5h,083h 
FA14 25E53024                
FA18 04F582E4                
FA1C 352FF583                
FA20 E0F526E5   +1   270     DB 0E0h,0F5h,026h,0E5h,030h,024h,005h,0F5h,082h,0E4h,035h,02Fh,0F5h,083h,0E0h,0F5h 
FA24 302405F5                
FA28 82E4352F                
FA2C F583E0F5                
FA30 27E53024   +1   271     DB 027h,0E5h,030h,024h,006h,0F5h,082h,0E4h,035h,02Fh,0F5h,083h,0E0h,0F5h,028h,0E5h 
FA34 06F582E4                
FA38 352FF583                
FA3C E0F528E5                
FA40 302407F5   +1   272     DB 030h,024h,007h,0F5h,082h,0E4h,035h,02Fh,0F5h,083h,0E0h,0F5h,029h,022h,075h,008h 
FA44 82E4352F                
FA48 F583E0F5                
FA4C 29227508                
FA50 F77509C8   +1   273     DB 0F7h,075h,009h,0C8h,012h,0F9h,0EBh,0E4h,0F5h,041h,085h,009h,082h,085h,008h,083h 
FA54 12F9EBE4                
FA58 F5418509                
FA5C 82850883                
FA60 E493B522   +1   274     DB 0E4h,093h,0B5h,022h,00Dh,074h,001h,093h,0B5h,023h,007h,074h,002h,093h,0F5h,041h 
FA64 0D740193                
FA68 B5230774                
FA6C 0293F541                
FA70 80167403   +1   275     DB 080h,016h,074h,003h,025h,009h,0F5h,009h,0E4h,035h,008h,0F5h,008h,0C3h,0E5h,009h 
FA74 2509F509                
FA78 E43508F5                
FA7C 08C3E509                
FA80 94DDE508   +1   276     DB 094h,0DDh,0E5h,008h,094h,0F7h,040h,0D2h,0E5h,041h,075h,0F0h,003h,0A4h,024h,0B3h 
FA84 94F740D2                
A51 MACRO ASSEMBLER  STARTUP                                                              09/23/2022 11:52:48 PAGE    13

FA88 E54175F0                
FA8C 03A424B3                
FA90 F582E434   +1   277     DB 0F5h,082h,0E4h,034h,0F7h,0F5h,083h,074h,001h,093h,0FAh,074h,002h,093h,0F9h,002h 
FA94 F7F58374                
FA98 0193FA74                
FA9C 0293F902                
FAA0 FC317D08   +1   278     DB 0FCh,031h,07Dh,008h,0AFh,03Ch,0AEh,03Bh,08Eh,00Ah,08Fh,00Bh,075h,02Fh,011h,075h 
FAA4 AF3CAE3B                
FAA8 8E0A8F0B                
FAAC 752F1175                
FAB0 3008E4FF   +1   279     DB 030h,008h,0E4h,0FFh,0EFh,0C3h,09Dh,050h,020h,085h,00Bh,082h,085h,00Ah,083h,0E4h 
FAB4 EFC39D50                
FAB8 20850B82                
FABC 850A83E4                
FAC0 93FEE530   +1   280     DB 093h,0FEh,0E5h,030h,02Fh,0F5h,082h,0E4h,035h,02Fh,0F5h,083h,0EEh,0F0h,005h,00Bh 
FAC4 2FF582E4                
FAC8 352FF583                
FACC EEF0050B                
FAD0 E50B7002   +1   281     DB 0E5h,00Bh,070h,002h,005h,00Ah,00Fh,080h,0DBh,022h,0E4h,0F5h,080h,0F5h,0E9h,0F5h 
FAD4 050A0F80                
FAD8 DB22E4F5                
FADC 80F5E9F5                
FAE0 E1F590F5   +1   282     DB 0E1h,0F5h,090h,0F5h,0EAh,0F5h,0E2h,0F5h,098h,0F5h,0EBh,0F5h,0E3h,0F5h,0A0h,0F5h 
FAE4 EAF5E2F5                
FAE8 98F5EBF5                
FAEC E3F5A0F5                
FAF0 ECF5E4F5   +1   283     DB 0ECh,0F5h,0E4h,0F5h,0B0h,0F5h,0EDh,0F5h,0E5h,0F5h,088h,0F5h,0EEh,0F5h,0E6h,0F5h 
FAF4 B0F5EDF5                
FAF8 E5F588F5                
FAFC EEF5E6F5                
FB00 C0F5EFF5   +1   284     DB 0C0h,0F5h,0EFh,0F5h,0E7h,0F5h,0F8h,0F5h,0D9h,0F5h,0D1h,022h,0ABh,007h,0AAh,006h 
FB04 E7F5F8F5                
FB08 D9F5D122                
FB0C AB07AA06                
FB10 E4F5B18A   +1   285     DB 0E4h,0F5h,0B1h,08Ah,0F7h,08Bh,0FBh,08Dh,0FCh,075h,0F2h,06Eh,075h,0F3h,005h,075h 
FB14 F78BFB8D                
FB18 FC75F26E                
FB1C 75F30575                
FB20 F40A75F5   +1   286     DB 0F4h,00Ah,075h,0F5h,009h,075h,0F6h,006h,000h,000h,000h,000h,0F5h,0F2h,0F5h,0F3h 
FB24 0975F606                
FB28 00000000                
FB2C F5F2F5F3                
FB30 F5F4F5F5   +1   287     DB 0F5h,0F4h,0F5h,0F5h,0F5h,0F6h,022h,0E4h,0F5h,0B1h,0EFh,025h,0E0h,0F5h,0F7h,075h 
FB34 F5F622E4                
FB38 F5B1EF25                
FB3C E0F5F775                
FB40 F2E675F3   +1   288     DB 0F2h,0E6h,075h,0F3h,005h,075h,0F4h,00Ah,075h,0F5h,009h,075h,0F6h,006h,000h,000h 
FB44 0575F40A                
FB48 75F50975                
FB4C F6060000                
FB50 0000E4F5   +1   289     DB 000h,000h,0E4h,0F5h,0F2h,0F5h,0F3h,0F5h,0F4h,0F5h,0F5h,0F5h,0F6h,022h,0E5h,043h 
FB54 F2F5F3F5                
FB58 F4F5F5F5                
FB5C F622E543                
FB60 B4010812   +1   290     DB 0B4h,001h,008h,012h,0F9h,085h,043h,097h,004h,080h,012h,0E5h,043h,0B4h,002h,00Ah 
FB64 F9854397                
FB68 048012E5                
FB6C 43B4020A                
FB70 5392AF43   +1   291     DB 053h,092h,0AFh,043h,097h,001h,043h,097h,008h,022h,043h,097h,008h,053h,092h,0AFh 
FB74 97014397                
FB78 08224397                
FB7C 085392AF                
FB80 43970122   +1   292     DB 043h,097h,001h,022h,0E4h,0F5h,043h,053h,09Bh,0F0h,043h,097h,002h,043h,097h,004h 
FB84 E4F54353                
FB88 9BF04397                
FB8C 02439704                
A51 MACRO ASSEMBLER  STARTUP                                                              09/23/2022 11:52:48 PAGE    14

FB90 E59330E0   +1   293     DB 0E5h,093h,030h,0E0h,0FBh,053h,093h,0FEh,085h,024h,096h,043h,097h,008h,053h,092h 
FB94 FB5393FE                
FB98 85249643                
FB9C 97085392                
FBA0 AF439701   +1   294     DB 0AFh,043h,097h,001h,022h,000h,0EFh,060h,00Bh,01Fh,000h,000h,000h,000h,000h,000h 
FBA4 2200EF60                
FBA8 0B1F0000                
FBAC 00000000                
FBB0 000080F2   +1   295     DB 000h,000h,080h,0F2h,0EEh,060h,005h,01Eh,07Fh,0FFh,080h,0EAh,000h,000h,000h,000h 
FBB4 EE60051E                
FBB8 7FFF80EA                
FBBC 00000000                
FBC0 224391C0   +1   296     DB 022h,043h,091h,0C0h,0E4h,0F5h,092h,0F5h,093h,075h,094h,057h,075h,095h,011h,0F5h 
FBC4 E4F592F5                
FBC8 93759457                
FBCC 759511F5                
FBD0 9643A901   +1   297     DB 096h,043h,0A9h,001h,022h,053h,092h,0AFh,043h,097h,001h,0E5h,093h,030h,0E4h,0FBh 
FBD4 225392AF                
FBD8 439701E5                
FBDC 9330E4FB                
FBE0 5393EF02   +1   298     DB 053h,093h,0EFh,002h,0F9h,0EBh,014h,0F5h,082h,08Ch,083h,0EEh,0F0h,005h,03Ch,0E5h 
FBE4 F9EB14F5                
FBE8 828C83EE                
FBEC F0053CE5                
FBF0 3C700205   +1   299     DB 03Ch,070h,002h,005h,03Bh,022h,0AFh,025h,08Fh,02Ch,08Fh,03Dh,053h,09Bh,0F0h,043h 
FBF4 3B22AF25                
FBF8 8F2C8F3D                
FBFC 539BF043                
FC00 97042212   +1   300     DB 097h,004h,022h,012h,0FBh,0C1h,0E4h,0F5h,0B1h,012h,0F9h,013h,080h,0F8h,005h,034h 
FC04 FBC1E4F5                
FC08 B112F913                
FC0C 80F80534                
FC10 E5347002   +1   301     DB 0E5h,034h,070h,002h,005h,033h,022h,053h,09Bh,0F0h,043h,097h,004h,022h,043h,097h 
FC14 05332253                
FC18 9BF04397                
FC1C 04224397                
FC20 08439702   +1   302     DB 008h,043h,097h,002h,022h,0E4h,0F5h,043h,002h,0FCh,017h,002h,0EFh,0FBh,002h,000h 
FC24 22E4F543                
FC28 02FC1702                
FC2C EFFB0200                
FC30 008A8389   +1   303     DB 000h,08Ah,083h,089h,082h,0E4h,073h,000h,000h,000h,000h,000h,000h,000h,000h,000h 
FC34 82E47300                
FC38 00000000                
FC3C 00000000                
FC40 00000000   +1   304     DB 000h,000h,000h,000h,000h,000h,000h,000h,000h,000h,000h,000h,000h,000h,000h,000h 
FC44 00000000                
FC48 00000000                
FC4C 00000000                
FC50 00000000   +1   305     DB 000h,000h,000h,000h,000h,000h,000h,000h,000h,000h,000h,000h,000h,000h,000h,000h 
FC54 00000000                
FC58 00000000                
FC5C 00000000                
FC60 00000000   +1   306     DB 000h,000h,000h,000h,000h,000h,000h,000h,000h,000h,000h,000h,000h,000h,000h,000h 
FC64 00000000                
FC68 00000000                
FC6C 00000000                
FC70 00000000   +1   307     DB 000h,000h,000h,000h,000h,000h,000h,000h,000h,000h,000h,000h,000h,000h,000h,000h 
FC74 00000000                
FC78 00000000                
FC7C 00000000                
FC80 00000000   +1   308     DB 000h,000h,000h,000h,000h,000h,000h,000h,000h,000h,000h,000h,000h,000h,000h,000h 
FC84 00000000                
FC88 00000000                
FC8C 00000000                
FC90 00000000   +1   309     DB 000h,000h,000h,000h,000h,000h,000h,000h,000h,000h,000h,000h,000h,000h,000h,000h 
FC94 00000000                
A51 MACRO ASSEMBLER  STARTUP                                                              09/23/2022 11:52:48 PAGE    15

FC98 00000000                
FC9C 00000000                
FCA0 00000000   +1   310     DB 000h,000h,000h,000h,000h,000h,000h,000h,000h,000h,000h,000h,000h,000h,000h,000h 
FCA4 00000000                
FCA8 00000000                
FCAC 00000000                
FCB0 00000000   +1   311     DB 000h,000h,000h,000h,000h,000h,000h,000h,000h,000h,000h,000h,000h,000h,000h,000h 
FCB4 00000000                
FCB8 00000000                
FCBC 00000000                
FCC0 00000000   +1   312     DB 000h,000h,000h,000h,000h,000h,000h,000h,000h,000h,000h,000h,000h,000h,000h,000h 
FCC4 00000000                
FCC8 00000000                
FCCC 00000000                
FCD0 00000000   +1   313     DB 000h,000h,000h,000h,000h,000h,000h,000h,000h,000h,000h,000h,000h,000h,000h,000h 
FCD4 00000000                
FCD8 00000000                
FCDC 00000000                
FCE0 00000000   +1   314     DB 000h,000h,000h,000h,000h,000h,000h,000h,000h,000h,000h,000h,000h,000h,000h,000h 
FCE4 00000000                
FCE8 00000000                
FCEC 00000000                
FCF0 00000000   +1   315     DB 000h,000h,000h,000h,000h,000h,000h,000h,000h,000h,000h,000h,000h,000h,000h,000h 
FCF4 00000000                
FCF8 00000000                
FCFC 00000000                
FD00 00000000   +1   316     DB 000h,000h,000h,000h,000h,000h,000h,000h,000h,000h,000h,000h,000h,000h,000h,000h 
FD04 00000000                
FD08 00000000                
FD0C 00000000                
FD10 00000000   +1   317     DB 000h,000h,000h,000h,000h,000h,000h,000h,000h,000h,000h,000h,000h,000h,000h,000h 
FD14 00000000                
FD18 00000000                
FD1C 00000000                
FD20 00000000   +1   318     DB 000h,000h,000h,000h,000h,000h,000h,000h,000h,000h,000h,000h,000h,000h,000h,000h 
FD24 00000000                
FD28 00000000                
FD2C 00000000                
FD30 00000000   +1   319     DB 000h,000h,000h,000h,000h,000h,000h,000h,000h,000h,000h,000h,000h,000h,000h,000h 
FD34 00000000                
FD38 00000000                
FD3C 00000000                
FD40 00000000   +1   320     DB 000h,000h,000h,000h,000h,000h,000h,000h,000h,000h,000h,000h,000h,000h,000h,000h 
FD44 00000000                
FD48 00000000                
FD4C 00000000                
FD50 00000000   +1   321     DB 000h,000h,000h,000h,000h,000h,000h,000h,000h,000h,000h,000h,000h,000h,000h,000h 
FD54 00000000                
FD58 00000000                
FD5C 00000000                
FD60 00000000   +1   322     DB 000h,000h,000h,000h,000h,000h,000h,000h,000h,000h,000h,000h,000h,000h,000h,000h 
FD64 00000000                
FD68 00000000                
FD6C 00000000                
FD70 00000000   +1   323     DB 000h,000h,000h,000h,000h,000h,000h,000h,000h,000h,000h,000h,000h,000h,000h,000h 
FD74 00000000                
FD78 00000000                
FD7C 00000000                
FD80 00000000   +1   324     DB 000h,000h,000h,000h,000h,000h,000h,000h,000h,000h,000h,000h,000h,000h,000h,000h 
FD84 00000000                
FD88 00000000                
FD8C 00000000                
FD90 00000000   +1   325     DB 000h,000h,000h,000h,000h,000h,000h,000h,000h,000h,000h,000h,000h,000h,000h,000h 
FD94 00000000                
FD98 00000000                
FD9C 00000000                
A51 MACRO ASSEMBLER  STARTUP                                                              09/23/2022 11:52:48 PAGE    16

FDA0 00000000   +1   326     DB 000h,000h,000h,000h,000h,000h,000h,000h,000h,000h,000h,000h,000h,000h,000h,000h 
FDA4 00000000                
FDA8 00000000                
FDAC 00000000                
FDB0 00000000   +1   327     DB 000h,000h,000h,000h,000h,000h,000h,000h,000h,000h,000h,000h,000h,000h,000h,000h 
FDB4 00000000                
FDB8 00000000                
FDBC 00000000                
FDC0 00000000   +1   328     DB 000h,000h,000h,000h,000h,000h,000h,000h,000h,000h,000h,000h,000h,000h,000h,000h 
FDC4 00000000                
FDC8 00000000                
FDCC 00000000                
FDD0 00000000   +1   329     DB 000h,000h,000h,000h,000h,000h,000h,000h,000h,000h,000h,000h,000h,000h,000h,000h 
FDD4 00000000                
FDD8 00000000                
FDDC 00000000                
FDE0 00000000   +1   330     DB 000h,000h,000h,000h,000h,000h,000h,000h,000h,000h,000h,000h,000h,000h,000h,000h 
FDE4 00000000                
FDE8 00000000                
FDEC 00000000                
FDF0 00000000   +1   331     DB 000h,000h,000h,000h,000h,000h,000h,000h,000h,000h,000h,000h,000h,000h,000h,000h 
FDF4 00000000                
FDF8 00000000                
FDFC 00000000                
FE00 00000000   +1   332     DB 000h,000h,000h,000h,000h,000h,000h,000h,000h,000h,000h,000h,000h,000h,000h,000h 
FE04 00000000                
FE08 00000000                
FE0C 00000000                
FE10 00000000   +1   333     DB 000h,000h,000h,000h,000h,000h,000h,000h,000h,000h,000h,000h,000h,000h,000h,000h 
FE14 00000000                
FE18 00000000                
FE1C 00000000                
FE20 00000000   +1   334     DB 000h,000h,000h,000h,000h,000h,000h,000h,000h,000h,000h,000h,000h,000h,000h,000h 
FE24 00000000                
FE28 00000000                
FE2C 00000000                
FE30 00000000   +1   335     DB 000h,000h,000h,000h,000h,000h,000h,000h,000h,000h,000h,000h,000h,000h,000h,000h 
FE34 00000000                
FE38 00000000                
FE3C 00000000                
FE40 00000000   +1   336     DB 000h,000h,000h,000h,000h,000h,000h,000h,000h,000h,000h,000h,000h,000h,000h,000h 
FE44 00000000                
FE48 00000000                
FE4C 00000000                
FE50 00000000   +1   337     DB 000h,000h,000h,000h,000h,000h,000h,000h,000h,000h,000h,000h,000h,000h,000h,000h 
FE54 00000000                
FE58 00000000                
FE5C 00000000                
FE60 00000000   +1   338     DB 000h,000h,000h,000h,000h,000h,000h,000h,000h,000h,000h,000h,000h,000h,000h,000h 
FE64 00000000                
FE68 00000000                
FE6C 00000000                
FE70 00000000   +1   339     DB 000h,000h,000h,000h,000h,000h,000h,000h,000h,000h,000h,000h,000h,000h,000h,000h 
FE74 00000000                
FE78 00000000                
FE7C 00000000                
FE80 00000000   +1   340     DB 000h,000h,000h,000h,000h,000h,000h,000h,000h,000h,000h,000h,000h,000h,000h,000h 
FE84 00000000                
FE88 00000000                
FE8C 00000000                
FE90 00000000   +1   341     DB 000h,000h,000h,000h,000h,000h,000h,000h,000h,000h,000h,000h,000h,000h,000h,000h 
FE94 00000000                
FE98 00000000                
FE9C 00000000                
FEA0 00000000   +1   342     DB 000h,000h,000h,000h,000h,000h,000h,000h,000h,000h,000h,000h,000h,000h,000h,000h 
FEA4 00000000                
A51 MACRO ASSEMBLER  STARTUP                                                              09/23/2022 11:52:48 PAGE    17

FEA8 00000000                
FEAC 00000000                
FEB0 00000000   +1   343     DB 000h,000h,000h,000h,000h,000h,000h,000h,000h,000h,000h,000h,000h,000h,000h,000h 
FEB4 00000000                
FEB8 00000000                
FEBC 00000000                
FEC0 00000000   +1   344     DB 000h,000h,000h,000h,000h,000h,000h,000h,000h,000h,000h,000h,000h,000h,000h,000h 
FEC4 00000000                
FEC8 00000000                
FECC 00000000                
FED0 00000000   +1   345     DB 000h,000h,000h,000h,000h,000h,000h,000h,000h,000h,000h,000h,000h,000h,000h,000h 
FED4 00000000                
FED8 00000000                
FEDC 00000000                
FEE0 00000000   +1   346     DB 000h,000h,000h,000h,000h,000h,000h,000h,000h,000h,000h,000h,000h,000h,000h,000h 
FEE4 00000000                
FEE8 00000000                
FEEC 00000000                
FEF0 00000000   +1   347     DB 000h,000h,000h,000h,000h,000h,000h,000h,000h,000h,000h,000h,000h,000h,000h,000h 
FEF4 00000000                
FEF8 00000000                
FEFC 00000000                
FF00 645A702C   +1   348     DB 064h,05Ah,070h,02Ch,0E5h,0F0h,064h,0A5h,070h,026h,0C2h,0AFh,075h,081h,070h,0F5h 
FF04 E5F064A5                
FF08 7026C2AF                
FF0C 758170F5                
FF10 B112FADA   +1   349     DB 0B1h,012h,0FAh,0DAh,0E4h,0F5h,091h,0F5h,092h,0F5h,093h,0F5h,094h,0F5h,095h,0F5h 
FF14 E4F591F5                
FF18 92F593F5                
FF1C 94F595F5                
FF20 96F5B17F   +1   350     DB 096h,0F5h,0B1h,07Fh,0D0h,07Eh,007h,012h,0FBh,0A5h,0E4h,0F5h,0B1h,012h,0FCh,003h 
FF24 D07E0712                
FF28 FBA5E4F5                
FF2C B112FC03                
FF30 02FC2B00   +1   351     DB 002h,0FCh,02Bh,000h,000h,000h,000h,000h,000h,000h,000h,000h,000h,000h,000h,000h 
FF34 00000000                
FF38 00000000                
FF3C 00000000                
FF40 00000000   +1   352     DB 000h,000h,000h,000h,000h,000h,000h,000h,000h,000h,000h,000h,000h,000h,000h,000h 
FF44 00000000                
FF48 00000000                
FF4C 00000000                
FF50 00000000   +1   353     DB 000h,000h,000h,000h,000h,000h,000h,000h,000h,000h,000h,000h,000h,000h,000h,000h 
FF54 00000000                
FF58 00000000                
FF5C 00000000                
FF60 00000000   +1   354     DB 000h,000h,000h,000h,000h,000h,000h,000h,000h,000h,000h,000h,000h,000h,000h,000h 
FF64 00000000                
FF68 00000000                
FF6C 00000000                
FF70 00000000   +1   355     DB 000h,000h,000h,000h,000h,000h,000h,000h,000h,000h,000h,000h,000h,000h,000h,000h 
FF74 00000000                
FF78 00000000                
FF7C 00000000                
FF80 00000000   +1   356     DB 000h,000h,000h,000h,000h,000h,000h,000h,000h,000h,000h,000h,000h,000h,000h,000h 
FF84 00000000                
FF88 00000000                
FF8C 00000000                
FF90 00000000   +1   357     DB 000h,000h,000h,000h,000h,000h,000h,000h,000h,000h,000h,000h,000h,000h,000h,000h 
FF94 00000000                
FF98 00000000                
FF9C 00000000                
FFA0 00000000   +1   358     DB 000h,000h,000h,000h,000h,000h,000h,000h,000h,000h,000h,000h,000h,000h,000h,000h 
FFA4 00000000                
FFA8 00000000                
FFAC 00000000                
A51 MACRO ASSEMBLER  STARTUP                                                              09/23/2022 11:52:48 PAGE    18

FFB0 00000000   +1   359     DB 000h,000h,000h,000h,000h,000h,000h,000h,000h,000h,000h,000h,000h,000h,000h,000h 
FFB4 00000000                
FFB8 00000000                
FFBC 00000000                
FFC0 00000000   +1   360     DB 000h,000h,000h,000h,000h,000h,000h,000h,000h,000h,000h,000h,000h,000h,000h,000h 
FFC4 00000000                
FFC8 00000000                
FFCC 00000000                
FFD0 00000000   +1   361     DB 000h,000h,000h,000h,000h,000h,000h,000h,000h,000h,000h,000h,000h,000h,000h,000h 
FFD4 00000000                
FFD8 00000000                
FFDC 00000000                
FFE0 00000000   +1   362     DB 000h,000h,000h,000h,000h,000h,000h,000h,000h,000h,000h,000h,000h,000h,000h,000h 
FFE4 00000000                
FFE8 00000000                
FFEC 00000000                
FFF0 00000000   +1   363     DB 000h,000h,000h,000h,000h,000h,000h,000h,000h,000h,000h,000h,000h,000h,000h,000h
FFF4 00000000                
FFF8 00000000                
FFFC 00000000                
                +1   364     
                +1   365     
                +1   366     
                +1   367     
                +1   368     
                +1   369     
                +1   370     
                +1   371     
                +1   372     
                +1   373     
                +1   374     
                +1   375     
                +1   376     
                +1   377     
                +1   378     
                +1   379     
                +1   380     
                +1   381     
                +1   382     
                +1   383     
                +1   384     
                +1   385     
                +1   386     
                +1   387     
                +1   388     
                +1   389     
                +1   390     
                +1   391     
                +1   392     
                +1   393     
                +1   394     
                +1   395     
                +1   396     
                +1   397     
                +1   398     
                +1   399     
                +1   400     
                +1   401     
                +1   402     
                +1   403     
                +1   404     
                +1   405     
                +1   406     
                +1   407     
                +1   408     
                +1   409     
A51 MACRO ASSEMBLER  STARTUP                                                              09/23/2022 11:52:48 PAGE    19

                +1   410     
                +1   411     
                +1   412     
                +1   413     
                +1   414     
                +1   415     
                +1   416     
                +1   417     
                +1   418     
                +1   419     
                +1   420     
                +1   421     
                +1   422     
                +1   423     
                +1   424     
                +1   425     
                +1   426     
                +1   427     
                +1   428     
                +1   429     
                +1   430     
                +1   431     
                +1   432     
                +1   433     
                +1   434     
                +1   435     
                +1   436     
                +1   437     
                +1   438     
                +1   439     
                +1   440     
                +1   441     
                +1   442     
                +1   443     
                +1   444     
                +1   445     
                +1   446     
                +1   447     
                +1   448     
                +1   449     
                +1   450     
                +1   451     
                +1   452     
                +1   453     
                +1   454     
                +1   455     
                +1   456     
                +1   457     
                +1   458     
                +1   459     
                +1   460     
                +1   461     
                +1   462     
                +1   463     
                +1   464     
                +1   465     
                +1   466     
                +1   467     
                +1   468     
                +1   469     
                +1   470     
                +1   471     
                +1   472     
                +1   473     
                +1   474     
                +1   475     
A51 MACRO ASSEMBLER  STARTUP                                                              09/23/2022 11:52:48 PAGE    20

                +1   476     
                +1   477     
                +1   478     
                +1   479     
                +1   480     
                +1   481     
                +1   482     
                +1   483     
                +1   484     
                +1   485     
                +1   486     
                +1   487     
                +1   488     
                +1   489     
                +1   490     
                +1   491     
                +1   492     
                +1   493     
                +1   494     
                +1   495     
                +1   496     
                +1   497     
                +1   498     
                +1   499     
                +1   500     
                +1   501     
                +1   502     
                +1   503     
                +1   504     
                +1   505     
                +1   506     
                +1   507     
                +1   508     
                +1   509     
                +1   510     
                +1   511     
                +1   512     
                +1   513     
                +1   514     
                +1   515     
                +1   516     
                +1   517     
                +1   518     
                +1   519     
                +1   520     
                +1   521     
                +1   522     
                +1   523     
                +1   524     
                +1   525     
                +1   526     
                +1   527     
                +1   528     
                +1   529     
                +1   530     
                +1   531     
                +1   532     
                +1   533     
                +1   534     
                +1   535     
                +1   536     
                +1   537     
                +1   538     
                +1   539     
                +1   540     
                +1   541     
A51 MACRO ASSEMBLER  STARTUP                                                              09/23/2022 11:52:48 PAGE    21

                +1   542     
                +1   543     
                +1   544     
                +1   545     
                +1   546     
                +1   547     
                +1   548     
                +1   549     
                +1   550     
                +1   551     
                +1   552     
                +1   553     
                +1   554     
                +1   555     
                +1   556     
                +1   557     
                +1   558     
                +1   559     
                +1   560     
                +1   561     
                +1   562     
                +1   563     
                +1   564     
                +1   565     
                +1   566     
                +1   567     
                +1   568     
                +1   569     
                +1   570     
                +1   571     
                +1   572     
                +1   573     
                +1   574     
                +1   575     
                +1   576     
                +1   577     
                +1   578     
                +1   579     
                +1   580     
                +1   581     
                +1   582     
                +1   583     
                +1   584     
                +1   585     
                +1   586     
                +1   587     
                +1   588     
                +1   589     
                +1   590     
                +1   591     
                +1   592     
                +1   593     
                +1   594     
                +1   595     
                +1   596     
                +1   597     
                +1   598     
                +1   599     
                +1   600     
                +1   601     
                +1   602     
                +1   603     
                +1   604     
                +1   605     
                +1   606     
                +1   607     
A51 MACRO ASSEMBLER  STARTUP                                                              09/23/2022 11:52:48 PAGE    22

                +1   608     
                +1   609     
                +1   610     
                +1   611     
                +1   612     
                +1   613     
                +1   614     
                +1   615     
                +1   616     
                +1   617     
                +1   618     
                +1   619     
                +1   620     
                +1   621     
                +1   622     
                     623     
                     624     
----                 625                     CSEG    AT      0
0000 02F000          626     ?C_STARTUP:     LJMP    Addr_ISPMain
                     627     ELSE
                                             CSEG    AT      0
                             ?C_STARTUP:     LJMP    STARTUP1
                             ENDIF
                     631     ;****************************************************************************
                     632     
----                 633                     RSEG    ?C_C51STARTUP
                     634     
0000                 635     STARTUP1:
                     636                     ;RAM                                                          
                     637     IF IDATALEN <> 0
0000 78FF            638                     MOV     R0,#IDATALEN - 1
0002 E4              639                     CLR     A
0003 F6              640     IDATALOOP:      MOV     @R0,A
0004 D8FD            641                     DJNZ    R0,IDATALOOP
                     642     ENDIF
                     643                     ;RAM
                     644     IF XDATALEN <> 0
0006 900000          645                     MOV     DPTR,#XDATASTART
0009 7F00            646                     MOV     R7,#LOW (XDATALEN)
                     647       IF (LOW (XDATALEN)) <> 0
                                             MOV     R6,#(HIGH (XDATALEN)) +1
                               ELSE
000B 7E10            650                     MOV     R6,#HIGH (XDATALEN)
                     651       ENDIF
000D E4              652                     CLR     A
000E F0              653     XDATALOOP:      MOVX    @DPTR,A
000F A3              654                     INC     DPTR
0010 DFFC            655                     DJNZ    R7,XDATALOOP
0012 DEFA            656                     DJNZ    R6,XDATALOOP
                     657     ENDIF
                     658     
                     659     IF PPAGEENABLE <> 0
                                             MOV     PPAGE_SFR,#PPAGE
                             ENDIF
                     662     
                     663     IF PDATALEN <> 0
                                             MOV     R0,#LOW (PDATASTART)
                                             MOV     R7,#LOW (PDATALEN)
                                             CLR     A
                             PDATALOOP:      MOVX    @R0,A
                                             INC     R0
                                             DJNZ    R7,PDATALOOP
                             ENDIF
                     671     
                     672     IF IBPSTACK <> 0
                             EXTRN DATA (?C_IBP)
A51 MACRO ASSEMBLER  STARTUP                                                              09/23/2022 11:52:48 PAGE    23

                             
                                             MOV     ?C_IBP,#LOW IBPSTACKTOP
                             ENDIF
                     677     
                     678     IF XBPSTACK <> 0
                             EXTRN DATA (?C_XBP)
                             
                                             MOV     ?C_XBP,#HIGH XBPSTACKTOP
                                             MOV     ?C_XBP+1,#LOW XBPSTACKTOP
                             ENDIF
                     684     
                     685     IF PBPSTACK <> 0
                             EXTRN DATA (?C_PBP)
                                             MOV     ?C_PBP,#LOW PBPSTACKTOP
                             ENDIF
                     689                     ;
0014 758100   F      690                     MOV     SP,#?STACK-1
                     691     ; This code is required if you use L51_BANK.A51 with Banking Mode 4
                     692     ; EXTRN CODE (?B_SWITCH0)
                     693     ;               CALL    ?B_SWITCH0      ; init bank mechanism to code bank 0
0017 020000   F      694                      LJMP    ?C_START
                     695     
                     696     
                     697     
                     698                     END
A51 MACRO ASSEMBLER  STARTUP                                                              09/23/2022 11:52:48 PAGE    24

SYMBOL TABLE LISTING
------ ----- -------


N A M E             T Y P E  V A L U E   ATTRIBUTES

?C_C51STARTUP. . .  C SEG    001AH       REL=UNIT
?C_START . . . . .  C ADDR   -----       EXT
?C_STARTUP . . . .  C ADDR   0000H   A   
?STACK . . . . . .  I SEG    005AH       REL=UNIT
ADDR_ISPMAIN . . .  C ADDR   F000H   A   
ENABLE_USB_ISP . .  N NUMB   0001H   A   
IBPSTACK . . . . .  N NUMB   0000H   A   
IBPSTACKTOP. . . .  N NUMB   0100H   A   
IDATALEN . . . . .  N NUMB   0100H   A   
IDATALOOP. . . . .  C ADDR   0003H   R   SEG=?C_C51STARTUP
PBPSTACK . . . . .  N NUMB   0000H   A   
PBPSTACKTOP. . . .  N NUMB   0000H   A   
PDATALEN . . . . .  N NUMB   0000H   A   
PDATASTART . . . .  N NUMB   0000H   A   
PPAGE. . . . . . .  N NUMB   0000H   A   
PPAGEENABLE. . . .  N NUMB   0000H   A   
PPAGE_SFR. . . . .  D ADDR   00A0H   A   
SP . . . . . . . .  D ADDR   0081H   A   
STARTUP1 . . . . .  C ADDR   0000H   R   SEG=?C_C51STARTUP
USER_ENTRANCE. . .  C ADDR   EFFBH   A   
XBPSTACK . . . . .  N NUMB   0000H   A   
XBPSTACKTOP. . . .  N NUMB   0000H   A   
XDATALEN . . . . .  N NUMB   1000H   A   
XDATALOOP. . . . .  C ADDR   000EH   R   SEG=?C_C51STARTUP
XDATASTART . . . .  N NUMB   0000H   A   


REGISTER BANK(S) USED: 0 


ASSEMBLY COMPLETE.  0 WARNING(S), 0 ERROR(S)
